target datalayout = "e-m:e-p270:32:32-p271:32:32-p272:64:64-i64:64-i128:128-f80:128-n8:16:32:64-S128"
target triple = "x86_64-pc-linux-gnu"

%struct.png_struct_def = type { [1 x %struct.__jmp_buf_tag], ptr, ptr, i64, ptr, ptr, ptr, ptr, ptr, ptr, ptr, ptr, ptr, i8, i8, i32, i32, i32, i32, %struct.z_stream_s, ptr, i32, i32, i32, i32, i32, i32, i32, i32, i32, i32, i32, i32, i32, i32, i32, i32, i32, i32, i32, i32, i64, i32, i32, i32, ptr, ptr, ptr, ptr, i64, i32, i32, ptr, i16, i32, i16, i8, i8, i8, i8, i8, i8, i8, i8, i8, i8, i8, i8, i8, i8, i8, i16, i8, i32, %struct.png_color_16_struct, %struct.png_color_16_struct, ptr, i32, i32, i32, i32, ptr, ptr, ptr, ptr, ptr, ptr, %struct.png_color_8_struct, %struct.png_color_8_struct, ptr, %struct.png_color_16_struct, ptr, ptr, ptr, ptr, ptr, ptr, ptr, ptr, ptr, i32, i32, i64, i64, i64, i64, i32, i32, ptr, ptr, i32, [29 x i8], i32, ptr, ptr, i32, i32, ptr, i8, i8, i16, i16, ptr, i32, i8, ptr, ptr, ptr, ptr, ptr, ptr, ptr, i8, i32, i32, i32, i64, %struct.png_unknown_chunk_t, i64, ptr, i64, i32, i32, ptr, [4 x ptr], %struct.png_colorspace }
%struct.__jmp_buf_tag = type { [8 x i64], i32, %struct.__sigset_t }
%struct.__sigset_t = type { [16 x i64] }
%struct.z_stream_s = type { ptr, i32, i64, ptr, i32, i64, ptr, ptr, ptr, ptr, ptr, i32, i64, i64 }
%struct.png_color_8_struct = type { i8, i8, i8, i8, i8 }
%struct.png_color_16_struct = type { i8, i16, i16, i16, i16 }
%struct.png_unknown_chunk_t = type { [5 x i8], ptr, i64, i8 }
%struct.png_colorspace = type { i32, %struct.png_xy, %struct.png_XYZ, i16, i16 }
%struct.png_xy = type { i32, i32, i32, i32, i32, i32, i32, i32 }
%struct.png_XYZ = type { i32, i32, i32, i32, i32, i32, i32, i32, i32 }

; Function Attrs: nounwind uwtable
define internal void @png_write_destroy(ptr noalias noundef %0) #0 {
  %2 = alloca ptr, align 8
  store ptr %0, ptr %2, align 8
  %3 = load ptr, ptr %2, align 8
  %4 = getelementptr inbounds %struct.png_struct_def, ptr %3, i32 0, i32 16
  %5 = load i32, ptr %4, align 8
  %6 = and i32 %5, 2
  %7 = icmp ne i32 %6, 0
  br i1 %7, label %8, label %12

8:                                                ; preds = %1
  %9 = load ptr, ptr %2, align 8
  %10 = getelementptr inbounds %struct.png_struct_def, ptr %9, i32 0, i32 19
  %11 = call i32 @deflateEnd(ptr noundef %10)
  br label %12

12:                                               ; preds = %8, %1
  %13 = load ptr, ptr %2, align 8
  %14 = load ptr, ptr %2, align 8
  %15 = getelementptr inbounds %struct.png_struct_def, ptr %14, i32 0, i32 20
  call void @png_free_buffer_list(ptr noundef %13, ptr noundef %15)
  %16 = load ptr, ptr %2, align 8
  %17 = load ptr, ptr %2, align 8
  %18 = getelementptr inbounds %struct.png_struct_def, ptr %17, i32 0, i32 46
  %19 = load ptr, ptr %18, align 8
  call void @png_free(ptr noundef %16, ptr noundef %19)
  %20 = load ptr, ptr %2, align 8
  %21 = getelementptr inbounds %struct.png_struct_def, ptr %20, i32 0, i32 46
  store ptr null, ptr %21, align 8
  %22 = load ptr, ptr %2, align 8
  %23 = load ptr, ptr %2, align 8
  %24 = getelementptr inbounds %struct.png_struct_def, ptr %23, i32 0, i32 45
  %25 = load ptr, ptr %24, align 8
  call void @png_free(ptr noundef %22, ptr noundef %25)
  %26 = load ptr, ptr %2, align 8
  %27 = load ptr, ptr %2, align 8
  %28 = getelementptr inbounds %struct.png_struct_def, ptr %27, i32 0, i32 47
  %29 = load ptr, ptr %28, align 8
  call void @png_free(ptr noundef %26, ptr noundef %29)
  %30 = load ptr, ptr %2, align 8
  %31 = load ptr, ptr %2, align 8
  %32 = getelementptr inbounds %struct.png_struct_def, ptr %31, i32 0, i32 48
  %33 = load ptr, ptr %32, align 8
  call void @png_free(ptr noundef %30, ptr noundef %33)
  %34 = load ptr, ptr %2, align 8
  %35 = getelementptr inbounds %struct.png_struct_def, ptr %34, i32 0, i32 45
  store ptr null, ptr %35, align 8
  %36 = load ptr, ptr %2, align 8
  %37 = getelementptr inbounds %struct.png_struct_def, ptr %36, i32 0, i32 47
  store ptr null, ptr %37, align 8
  %38 = load ptr, ptr %2, align 8
  %39 = getelementptr inbounds %struct.png_struct_def, ptr %38, i32 0, i32 48
  store ptr null, ptr %39, align 8
  %40 = load ptr, ptr %2, align 8
  %41 = load ptr, ptr %2, align 8
  %42 = getelementptr inbounds %struct.png_struct_def, ptr %41, i32 0, i32 117
  %43 = load ptr, ptr %42, align 8
  call void @png_free(ptr noundef %40, ptr noundef %43)
  %44 = load ptr, ptr %2, align 8
  %45 = getelementptr inbounds %struct.png_struct_def, ptr %44, i32 0, i32 117
  store ptr null, ptr %45, align 8
  ret void
}

; Function Attrs: nounwind uwtable
define void @png_destroy_write_struct(ptr noundef %0, ptr noundef %1) #0 {
  %3 = alloca ptr, align 8
  %4 = alloca ptr, align 8
  %5 = alloca ptr, align 8
  store ptr %0, ptr %3, align 8
  store ptr %1, ptr %4, align 8
  %6 = load ptr, ptr %3, align 8
  %7 = icmp ne ptr %6, null
  br i1 %7, label %8, label %20

8:                                                ; preds = %2
  %9 = load ptr, ptr %3, align 8
  %10 = load ptr, ptr %9, align 8
  store ptr %10, ptr %5, align 8
  %11 = load ptr, ptr %5, align 8
  %12 = icmp ne ptr %11, null
  br i1 %12, label %13, label %19

13:                                               ; preds = %8
  %14 = load ptr, ptr %5, align 8
  %15 = load ptr, ptr %4, align 8
  call void @png_destroy_info_struct(ptr noundef %14, ptr noundef %15)
  %16 = load ptr, ptr %3, align 8
  store ptr null, ptr %16, align 8
  %17 = load ptr, ptr %5, align 8
  call void @png_write_destroy(ptr noundef %17)
  %18 = load ptr, ptr %5, align 8
  call void @png_destroy_png_struct(ptr noundef %18)
  br label %19

19:                                               ; preds = %13, %8
  br label %20

20:                                               ; preds = %19, %2
  ret void
}