; Function Attrs: nounwind uwtable
define void @png_destroy_write_struct(ptr noundef %0, ptr noundef %1) local_unnamed_addr #0 {
  %.not = icmp eq ptr %0, null
  br i1 %.not, label %23, label %3

3:                                                ; preds = %2
  %4 = load ptr, ptr %0, align 8
  %.not9 = icmp eq ptr %4, null
  br i1 %.not9, label %23, label %5

5:                                                ; preds = %3
  tail call void @png_destroy_info_struct(ptr noundef nonnull %4, ptr noundef %1) #15
  store ptr null, ptr %0, align 8
  %6 = getelementptr inbounds i8, ptr %4, i64 304
  %7 = load i32, ptr %6, align 8, !alias.scope !31
  %8 = and i32 %7, 2
  %.not.i = icmp eq i32 %8, 0
  br i1 %.not.i, label %png_write_destroy.exit, label %9

9:                                                ; preds = %5
  %10 = getelementptr inbounds i8, ptr %4, i64 320
  %11 = tail call i32 @deflateEnd(ptr noundef nonnull %10) #15
  br label %png_write_destroy.exit

png_write_destroy.exit:                           ; preds = %5, %9
  %12 = getelementptr inbounds i8, ptr %4, i64 432
  tail call void @png_free_buffer_list(ptr noundef nonnull %4, ptr noundef nonnull %12) #15
  %13 = getelementptr inbounds i8, ptr %4, i64 552
  %14 = load ptr, ptr %13, align 8, !alias.scope !31
  tail call void @png_free(ptr noundef nonnull %4, ptr noundef %14) #15
  store ptr null, ptr %13, align 8, !alias.scope !31
  %15 = getelementptr inbounds i8, ptr %4, i64 544
  %16 = load ptr, ptr %15, align 8, !alias.scope !31
  tail call void @png_free(ptr noundef nonnull %4, ptr noundef %16) #15
  %17 = getelementptr inbounds i8, ptr %4, i64 560
  %18 = load ptr, ptr %17, align 8, !alias.scope !31
  tail call void @png_free(ptr noundef nonnull %4, ptr noundef %18) #15
  %19 = getelementptr inbounds i8, ptr %4, i64 568
  %20 = load ptr, ptr %19, align 8, !alias.scope !31
  tail call void @png_free(ptr noundef nonnull %4, ptr noundef %20) #15
  store ptr null, ptr %15, align 8, !alias.scope !31
  %21 = getelementptr inbounds i8, ptr %4, i64 968
  tail call void @llvm.memset.p0.i64(ptr noundef nonnull align 8 dereferenceable(16) %17, i8 0, i64 16, i1 false), !alias.scope !31
  %22 = load ptr, ptr %21, align 8, !alias.scope !31
  tail call void @png_free(ptr noundef nonnull %4, ptr noundef %22) #15
  store ptr null, ptr %21, align 8, !alias.scope !31
  tail call void @png_destroy_png_struct(ptr noundef nonnull %4) #15
  br label %23

23:                                               ; preds = %3, %png_write_destroy.exit, %2
  ret void
}